target datalayout = "e-m:e-p270:32:32-p271:32:32-p272:64:64-i64:64-i128:128-f80:128-n8:16:32:64-S128"
target triple = "x86_64-pc-linux-gnu"

%struct.PQExpBufferData = type { ptr, i64, i64 }

@.str.242 = private unnamed_addr constant [32 x i8] c"\\else: cannot occur after \\else\00", align 1
@.str.243 = private unnamed_addr constant [23 x i8] c"\\else: no matching \\if\00", align 1

; Function Attrs: nounwind uwtable
define internal void @discard_query_text(ptr noundef %0, ptr noundef %1, ptr noundef %2) #0 {
  %4 = alloca ptr, align 8
  %5 = alloca ptr, align 8
  %6 = alloca ptr, align 8
  %7 = alloca i32, align 4
  store ptr %0, ptr %4, align 8
  store ptr %1, ptr %5, align 8
  store ptr %2, ptr %6, align 8
  %8 = load ptr, ptr %6, align 8
  %9 = icmp ne ptr %8, null
  br i1 %9, label %10, label %23

10:                                               ; preds = %3
  call void @llvm.lifetime.start.p0(i64 4, ptr %7) #10
  %11 = load ptr, ptr %5, align 8
  %12 = call i32 @conditional_stack_get_query_len(ptr noundef %11)
  store i32 %12, ptr %7, align 4
  %13 = load i32, ptr %7, align 4
  %14 = sext i32 %13 to i64
  %15 = load ptr, ptr %6, align 8
  %16 = getelementptr inbounds nuw %struct.PQExpBufferData, ptr %15, i32 0, i32 1
  store i64 %14, ptr %16, align 8
  %17 = load ptr, ptr %6, align 8
  %18 = getelementptr inbounds nuw %struct.PQExpBufferData, ptr %17, i32 0, i32 0
  %19 = load ptr, ptr %18, align 8
  %20 = load i32, ptr %7, align 4
  %21 = sext i32 %20 to i64
  %22 = getelementptr inbounds i8, ptr %19, i64 %21
  store i8 0, ptr %22, align 1
  call void @llvm.lifetime.end.p0(i64 4, ptr %7) #10
  br label %23

23:                                               ; preds = %10, %3
  %24 = load ptr, ptr %4, align 8
  %25 = load ptr, ptr %5, align 8
  %26 = call i32 @conditional_stack_get_paren_depth(ptr noundef %25)
  call void @psql_scan_set_paren_depth(ptr noundef %24, i32 noundef %26)
  ret void
}

; Function Attrs: nounwind uwtable
define internal void @save_query_text_state(ptr noundef %0, ptr noundef %1, ptr noundef %2) #0 {
  %4 = alloca ptr, align 8
  %5 = alloca ptr, align 8
  %6 = alloca ptr, align 8
  store ptr %0, ptr %4, align 8
  store ptr %1, ptr %5, align 8
  store ptr %2, ptr %6, align 8
  %7 = load ptr, ptr %6, align 8
  %8 = icmp ne ptr %7, null
  br i1 %8, label %9, label %15

9:                                                ; preds = %3
  %10 = load ptr, ptr %5, align 8
  %11 = load ptr, ptr %6, align 8
  %12 = getelementptr inbounds nuw %struct.PQExpBufferData, ptr %11, i32 0, i32 1
  %13 = load i64, ptr %12, align 8
  %14 = trunc i64 %13 to i32
  call void @conditional_stack_set_query_len(ptr noundef %10, i32 noundef %14)
  br label %15

15:                                               ; preds = %9, %3
  %16 = load ptr, ptr %5, align 8
  %17 = load ptr, ptr %4, align 8
  %18 = call i32 @psql_scan_get_paren_depth(ptr noundef %17)
  call void @conditional_stack_set_paren_depth(ptr noundef %16, i32 noundef %18)
  ret void
}

; Function Attrs: nounwind uwtable
define internal i32 @exec_command_else(ptr noundef %0, ptr noundef %1, ptr noundef %2) #0 {
  %4 = alloca ptr, align 8
  %5 = alloca ptr, align 8
  %6 = alloca ptr, align 8
  %7 = alloca i8, align 1
  store ptr %0, ptr %4, align 8
  store ptr %1, ptr %5, align 8
  store ptr %2, ptr %6, align 8
  call void @llvm.lifetime.start.p0(i64 1, ptr %7) #10
  store i8 1, ptr %7, align 1
  %8 = load ptr, ptr %5, align 8
  %9 = call i32 @conditional_stack_peek(ptr noundef %8)
  switch i32 %9, label %30 [
    i32 1, label %10
    i32 2, label %16
    i32 3, label %22
    i32 4, label %28
    i32 5, label %28
    i32 0, label %29
  ]

10:                                               ; preds = %3
  %11 = load ptr, ptr %4, align 8
  %12 = load ptr, ptr %5, align 8
  %13 = load ptr, ptr %6, align 8
  call void @save_query_text_state(ptr noundef %11, ptr noundef %12, ptr noundef %13)
  %14 = load ptr, ptr %5, align 8
  %15 = call zeroext i1 @conditional_stack_poke(ptr noundef %14, i32 noundef 5)
  br label %30

16:                                               ; preds = %3
  %17 = load ptr, ptr %4, align 8
  %18 = load ptr, ptr %5, align 8
  %19 = load ptr, ptr %6, align 8
  call void @discard_query_text(ptr noundef %17, ptr noundef %18, ptr noundef %19)
  %20 = load ptr, ptr %5, align 8
  %21 = call zeroext i1 @conditional_stack_poke(ptr noundef %20, i32 noundef 4)
  br label %30

22:                                               ; preds = %3
  %23 = load ptr, ptr %4, align 8
  %24 = load ptr, ptr %5, align 8
  %25 = load ptr, ptr %6, align 8
  call void @discard_query_text(ptr noundef %23, ptr noundef %24, ptr noundef %25)
  %26 = load ptr, ptr %5, align 8
  %27 = call zeroext i1 @conditional_stack_poke(ptr noundef %26, i32 noundef 5)
  br label %30

28:                                               ; preds = %3, %3
  call void (i32, i32, ptr, ...) @pg_log_generic(i32 noundef 4, i32 noundef 0, ptr noundef @.str.242)
  store i8 0, ptr %7, align 1
  br label %30

29:                                               ; preds = %3
  call void (i32, i32, ptr, ...) @pg_log_generic(i32 noundef 4, i32 noundef 0, ptr noundef @.str.243)
  store i8 0, ptr %7, align 1
  br label %30

30:                                               ; preds = %3, %29, %28, %22, %16, %10
  %31 = load i8, ptr %7, align 1, !range !4, !noundef !5
  %32 = trunc i8 %31 to i1
  %33 = select i1 %32, i32 2, i32 5
  call void @llvm.lifetime.end.p0(i64 1, ptr %7) #10
  ret i32 %33
}