; Function Attrs: nounwind uwtable
define internal fastcc range(i32 2, 6) i32 @exec_command_else(ptr noundef %0, ptr noundef %1, ptr noundef captures(address_is_null) %2) unnamed_addr #0 {
  %4 = tail call i32 @conditional_stack_peek(ptr noundef %1) #16
  switch i32 %4, label %32 [
    i32 1, label %5
    i32 2, label %12
    i32 3, label %21
    i32 4, label %30
    i32 5, label %30
    i32 0, label %31
  ]

5:                                                ; preds = %3
  %.not.i = icmp eq ptr %2, null
  br i1 %.not.i, label %save_query_text_state.exit, label %6

6:                                                ; preds = %5
  %7 = getelementptr inbounds nuw i8, ptr %2, i64 8
  %8 = load i64, ptr %7, align 8
  %9 = trunc i64 %8 to i32
  tail call void @conditional_stack_set_query_len(ptr noundef %1, i32 noundef %9) #16
  br label %save_query_text_state.exit

save_query_text_state.exit:                       ; preds = %5, %6
  %10 = tail call i32 @psql_scan_get_paren_depth(ptr noundef %0) #16
  tail call void @conditional_stack_set_paren_depth(ptr noundef %1, i32 noundef %10) #16
  %11 = tail call zeroext i1 @conditional_stack_poke(ptr noundef %1, i32 noundef 5) #16
  br label %32

12:                                               ; preds = %3
  %.not.i13 = icmp eq ptr %2, null
  br i1 %.not.i13, label %discard_query_text.exit, label %13

13:                                               ; preds = %12
  %14 = tail call i32 @conditional_stack_get_query_len(ptr noundef %1) #16
  %15 = sext i32 %14 to i64
  %16 = getelementptr inbounds nuw i8, ptr %2, i64 8
  store i64 %15, ptr %16, align 8
  %17 = load ptr, ptr %2, align 8
  %18 = getelementptr inbounds i8, ptr %17, i64 %15
  store i8 0, ptr %18, align 1
  br label %discard_query_text.exit

discard_query_text.exit:                          ; preds = %12, %13
  %19 = tail call i32 @conditional_stack_get_paren_depth(ptr noundef %1) #16
  tail call void @psql_scan_set_paren_depth(ptr noundef %0, i32 noundef %19) #16
  %20 = tail call zeroext i1 @conditional_stack_poke(ptr noundef %1, i32 noundef 4) #16
  br label %32

21:                                               ; preds = %3
  %.not.i14 = icmp eq ptr %2, null
  br i1 %.not.i14, label %discard_query_text.exit15, label %22

22:                                               ; preds = %21
  %23 = tail call i32 @conditional_stack_get_query_len(ptr noundef %1) #16
  %24 = sext i32 %23 to i64
  %25 = getelementptr inbounds nuw i8, ptr %2, i64 8
  store i64 %24, ptr %25, align 8
  %26 = load ptr, ptr %2, align 8
  %27 = getelementptr inbounds i8, ptr %26, i64 %24
  store i8 0, ptr %27, align 1
  br label %discard_query_text.exit15

discard_query_text.exit15:                        ; preds = %21, %22
  %28 = tail call i32 @conditional_stack_get_paren_depth(ptr noundef %1) #16
  tail call void @psql_scan_set_paren_depth(ptr noundef %0, i32 noundef %28) #16
  %29 = tail call zeroext i1 @conditional_stack_poke(ptr noundef %1, i32 noundef 5) #16
  br label %32

30:                                               ; preds = %3, %3
  tail call void (i32, i32, ptr, ...) @pg_log_generic(i32 noundef 4, i32 noundef 0, ptr noundef nonnull @.str.242) #16
  br label %32

31:                                               ; preds = %3
  tail call void (i32, i32, ptr, ...) @pg_log_generic(i32 noundef 4, i32 noundef 0, ptr noundef nonnull @.str.243) #16
  br label %32

32:                                               ; preds = %31, %30, %discard_query_text.exit15, %discard_query_text.exit, %save_query_text_state.exit, %3
  %.0 = phi i32 [ 2, %3 ], [ 5, %31 ], [ 5, %30 ], [ 2, %discard_query_text.exit15 ], [ 2, %discard_query_text.exit ], [ 2, %save_query_text_state.exit ]
  ret i32 %.0
}